; Function Attrs: mustprogress nounwind uwtable
define hidden noundef zeroext i1 @_ZN15ConnectionGraph14has_candidatesEP7Compile(ptr nocapture noundef readonly %0) local_unnamed_addr #0 align 2 {
  %2 = getelementptr inbounds i8, ptr %0, i64 416
  %3 = load i32, ptr %2, align 4
  %4 = getelementptr inbounds i8, ptr %0, i64 424
  %5 = icmp sgt i32 %3, 0
  br i1 %5, label %.lr.ph.preheader, label %._crit_edge

.lr.ph.preheader:                                 ; preds = %1
  %6 = zext nneg i32 %3 to i64
  %wide.trip.count = zext nneg i32 %3 to i64
  %7 = load ptr, ptr %4, align 8
  %8 = load ptr, ptr %7, align 8
  %9 = getelementptr inbounds i8, ptr %8, i64 44
  %10 = load i32, ptr %9, align 4
  %11 = and i32 %10, 63
  %12 = icmp eq i32 %11, 39
  br i1 %12, label %._crit_edge, label %.lr.ph21

.lr.ph:                                           ; preds = %_ZNK18CallStaticJavaNode16is_boxing_methodEv.exit.thread
  %13 = load ptr, ptr %4, align 8
  %14 = getelementptr inbounds ptr, ptr %13, i64 %indvars.iv.next
  %15 = load ptr, ptr %14, align 8
  %16 = getelementptr inbounds i8, ptr %15, i64 44
  %17 = load i32, ptr %16, align 4
  %18 = and i32 %17, 63
  %19 = icmp eq i32 %18, 39
  br i1 %19, label %._crit_edge, label %.lr.ph21, !llvm.loop !6

.lr.ph21:                                         ; preds = %.lr.ph.preheader, %.lr.ph
  %20 = phi i32 [ %17, %.lr.ph ], [ %10, %.lr.ph.preheader ]
  %21 = phi ptr [ %16, %.lr.ph ], [ %9, %.lr.ph.preheader ]
  %22 = phi ptr [ %15, %.lr.ph ], [ %8, %.lr.ph.preheader ]
  %23 = phi i1 [ %52, %.lr.ph ], [ true, %.lr.ph.preheader ]
  %indvars.iv20 = phi i64 [ %indvars.iv.next, %.lr.ph ], [ 0, %.lr.ph.preheader ]
  %24 = and i32 %20, 255
  %25 = icmp eq i32 %24, 199
  br i1 %25, label %26, label %40

26:                                               ; preds = %.lr.ph21
  %27 = getelementptr inbounds i8, ptr %22, i64 8
  %28 = load ptr, ptr %27, align 8
  %29 = getelementptr inbounds i8, ptr %28, i64 40
  %30 = load ptr, ptr %29, align 8
  %31 = tail call noundef ptr @_ZNK4Node6uncastEb(ptr noundef nonnull align 8 dereferenceable(52) %30, i1 noundef zeroext false) #12
  %32 = getelementptr inbounds i8, ptr %31, i64 44
  %33 = load i32, ptr %32, align 4
  %34 = and i32 %33, 511
  %35 = icmp eq i32 %34, 264
  br i1 %35, label %40, label %36

36:                                               ; preds = %26
  %37 = getelementptr inbounds i8, ptr %31, i64 48
  %38 = load i32, ptr %37, align 8
  %39 = and i32 %38, 16
  %.not = icmp eq i32 %39, 0
  br i1 %.not, label %._crit_edge, label %40

40:                                               ; preds = %26, %36, %.lr.ph21
  %41 = load i32, ptr %21, align 4
  %42 = and i32 %41, 31
  %43 = icmp eq i32 %42, 31
  br i1 %43, label %44, label %_ZNK18CallStaticJavaNode16is_boxing_methodEv.exit.thread

44:                                               ; preds = %40
  %45 = getelementptr inbounds i8, ptr %22, i64 48
  %46 = load i32, ptr %45, align 8
  %47 = and i32 %46, 8
  %.not1.i = icmp eq i32 %47, 0
  br i1 %.not1.i, label %_ZNK18CallStaticJavaNode16is_boxing_methodEv.exit.thread, label %48

48:                                               ; preds = %44
  %49 = getelementptr inbounds i8, ptr %22, i64 136
  %50 = load ptr, ptr %49, align 8
  %.not.i = icmp eq ptr %50, null
  br i1 %.not.i, label %_ZNK18CallStaticJavaNode16is_boxing_methodEv.exit.thread, label %_ZNK18CallStaticJavaNode16is_boxing_methodEv.exit

_ZNK18CallStaticJavaNode16is_boxing_methodEv.exit: ; preds = %48
  %51 = tail call noundef zeroext i1 @_ZNK8ciMethod16is_boxing_methodEv(ptr noundef nonnull align 8 dereferenceable(160) %50) #12
  br i1 %51, label %._crit_edge, label %_ZNK18CallStaticJavaNode16is_boxing_methodEv.exit.thread

_ZNK18CallStaticJavaNode16is_boxing_methodEv.exit.thread: ; preds = %44, %48, %40, %_ZNK18CallStaticJavaNode16is_boxing_methodEv.exit
  %indvars.iv.next = add nuw nsw i64 %indvars.iv20, 1
  %52 = icmp ult i64 %indvars.iv.next, %6
  %exitcond.not = icmp eq i64 %indvars.iv.next, %wide.trip.count
  br i1 %exitcond.not, label %._crit_edge, label %.lr.ph, !llvm.loop !6

._crit_edge:                                      ; preds = %_ZNK18CallStaticJavaNode16is_boxing_methodEv.exit.thread, %_ZNK18CallStaticJavaNode16is_boxing_methodEv.exit, %36, %.lr.ph, %.lr.ph.preheader, %1
  %.lcssa = phi i1 [ false, %1 ], [ true, %.lr.ph.preheader ], [ %52, %.lr.ph ], [ %23, %36 ], [ %23, %_ZNK18CallStaticJavaNode16is_boxing_methodEv.exit ], [ %52, %_ZNK18CallStaticJavaNode16is_boxing_methodEv.exit.thread ]
  ret i1 %.lcssa
}